; Function Attrs: mustprogress nofree nounwind willreturn memory(argmem: read) uwtable
define internal noundef range(i32 0, 2) i32 @_ZZL21ShowDemoWindowWidgetsP19ImGuiDemoWindowDataEN11TextFilters18FilterImGuiLettersEP26ImGuiInputTextCallbackData(ptr noundef readonly captures(none) %0) #12 align 2 {
  %2 = getelementptr inbounds nuw i8, ptr %0, i64 24
  %3 = load i16, ptr %2, align 8, !tbaa !444
  %4 = icmp ult i16 %3, 256
  br i1 %4, label %5, label %8

5:                                                ; preds = %1
  %6 = zext nneg i16 %3 to i32
  %sext = shl nuw i32 %6, 24
  %7 = ashr exact i32 %sext, 24
  %memchr = tail call ptr @memchr(ptr nonnull dereferenceable(1) @.str.1135, i32 %7, i64 6)
  %.not = icmp eq ptr %memchr, null
  br i1 %.not, label %8, label %9

8:                                                ; preds = %5, %1
  br label %9

9:                                                ; preds = %5, %8
  %.0 = phi i32 [ 1, %8 ], [ 0, %5 ]
  ret i32 %.0
}